Certificate:
    Data:
        Version: 3 (0x2)
        Serial Number: 2073 (0x819)
    Signature Algorithm: md5WithRSAEncryption
        Issuer: C=TH, ST=Bangkok, L=bkk, O=nhis-bkk, CN=nhis-bkk CA/emailAddress=nis@nucleus.nectec.or.th
        Validity
            Not Before: Jan 29 04:39:11 2019 GMT
            Not After : Dec  7 04:39:11 2028 GMT
        Subject: C=TH, ST=PATHUMTHANI, L=Thailand Science Park, O=NECTEC, OU=NTL, CN=13814@vpn/emailAddress=13814@vpn
        Subject Public Key Info:
            Public Key Algorithm: rsaEncryption
                Public-Key: (1024 bit)
                Modulus:
                    00:b0:5d:bd:c4:6b:76:00:70:cb:cc:84:44:39:ff:
                    9e:ba:ee:ac:e5:60:ad:30:b0:b5:75:f0:c6:0e:92:
                    bb:16:d7:71:98:c1:8b:4b:5f:2b:08:79:84:37:e8:
                    3f:40:fd:56:52:bd:8e:84:c0:f3:ac:3b:07:c3:8d:
                    bd:21:65:0e:47:4f:ee:91:49:57:61:43:be:32:49:
                    d3:44:41:d9:8e:b8:be:0b:94:52:93:22:d6:aa:b6:
                    f8:e2:1c:72:7d:21:0d:46:34:46:1d:c6:c4:8d:b0:
                    4f:e9:be:38:13:24:03:19:9f:00:ae:15:bf:b6:c0:
                    92:7d:5b:b2:8c:6c:c8:ec:f3
                Exponent: 65537 (0x10001)
        X509v3 extensions:
            X509v3 Subject Key Identifier: 
                86:43:DD:82:F2:FD:AF:BF:AD:3B:75:5B:DE:A1:F2:C5:5F:61:3D:04
            X509v3 Authority Key Identifier: 
                keyid:A1:B1:93:1F:F2:41:9E:8D:6C:21:AF:DE:83:51:92:A4:6C:E0:89:4A

            X509v3 Basic Constraints: 
                CA:TRUE
    Signature Algorithm: md5WithRSAEncryption
         a7:aa:43:ac:07:c1:1b:7d:20:05:7c:50:31:c5:27:91:8e:33:
         22:85:bc:29:a6:9a:aa:33:ae:25:36:af:31:91:87:96:86:9a:
         d8:d7:61:8d:d7:76:48:bb:ef:86:f2:7c:31:cd:f7:f9:8b:8c:
         09:54:e0:9d:3e:72:2e:77:b5:ec:cf:d5:11:0e:9e:ef:f4:71:
         b0:41:dc:e0:10:fb:90:8f:5e:3c:35:27:8b:10:dd:7e:04:47:
         21:96:3b:e5:1a:cd:89:e1:4c:c8:8f:6b:a2:4e:39:6e:23:86:
         08:c8:de:73:29:68:41:90:1f:45:cf:2e:39:29:1b:f1:fe:e7:
         cc:b2
-----BEGIN CERTIFICATE-----
MIIC1zCCAkCgAwIBAgICCBkwDQYJKoZIhvcNAQEEBQAwfzELMAkGA1UEBhMCVEgx
EDAOBgNVBAgTB0Jhbmdrb2sxDDAKBgNVBAcTA2JrazERMA8GA1UEChMIbmhpcy1i
a2sxFDASBgNVBAMTC25oaXMtYmtrIENBMScwJQYJKoZIhvcNAQkBFhhuaXNAbnVj
bGV1cy5uZWN0ZWMub3IudGgwHhcNMTkwMTI5MDQzOTExWhcNMjgxMjA3MDQzOTEx
WjCBkDELMAkGA1UEBhMCVEgxFDASBgNVBAgMC1BBVEhVTVRIQU5JMR4wHAYDVQQH
DBVUaGFpbGFuZCBTY2llbmNlIFBhcmsxDzANBgNVBAoMBk5FQ1RFQzEMMAoGA1UE
CwwDTlRMMRIwEAYDVQQDDAkxMzgxNEB2cG4xGDAWBgkqhkiG9w0BCQEWCTEzODE0
QHZwbjCBnzANBgkqhkiG9w0BAQEFAAOBjQAwgYkCgYEAsF29xGt2AHDLzIREOf+e
uu6s5WCtMLC1dfDGDpK7FtdxmMGLS18rCHmEN+g/QP1WUr2OhMDzrDsHw429IWUO
R0/ukUlXYUO+MknTREHZjri+C5RSkyLWqrb44hxyfSENRjRGHcbEjbBP6b44EyQD
GZ8ArhW/tsCSfVuyjGzI7PMCAwEAAaNQME4wHQYDVR0OBBYEFIZD3YLy/a+/rTt1
W96h8sVfYT0EMB8GA1UdIwQYMBaAFKGxkx/yQZ6NbCGv3oNRkqRs4IlKMAwGA1Ud
EwQFMAMBAf8wDQYJKoZIhvcNAQEEBQADgYEAp6pDrAfBG30gBXxQMcUnkY4zIoW8
KaaaqjOuJTavMZGHloaa2Ndhjdd2SLvvhvJ8Mc33+YuMCVTgnT5yLne17M/VEQ6e
7/RxsEHc4BD7kI9ePDUnixDdfgRHIZY75RrNieFMyI9rok45biOGCMjecyloQZAf
Rc8uOSkb8f7nzLI=
-----END CERTIFICATE-----
